target datalayout = "e-m:e-p270:32:32-p271:32:32-p272:64:64-i64:64-i128:128-f80:128-n8:16:32:64-S128"
target triple = "x86_64-pc-linux-gnu"

; Function Attrs: mustprogress nounwind uwtable
define noundef i64 @_ZN11colvarvalue14num_dimensionsENS_4TypeE(i32 noundef %0) #2 align 2 {
  %2 = alloca i64, align 8
  %3 = alloca i32, align 4
  store i32 %0, ptr %3, align 4, !tbaa !110
  %4 = load i32, ptr %3, align 4, !tbaa !110
  switch i32 %4, label %6 [
    i32 0, label %5
    i32 1, label %7
    i32 2, label %8
    i32 3, label %8
    i32 4, label %8
    i32 5, label %9
    i32 6, label %9
    i32 7, label %10
  ]

5:                                                ; preds = %1
  br label %6

6:                                                ; preds = %1, %5
  store i64 0, ptr %2, align 8
  br label %11

7:                                                ; preds = %1
  store i64 1, ptr %2, align 8
  br label %11

8:                                                ; preds = %1, %1, %1
  store i64 3, ptr %2, align 8
  br label %11

9:                                                ; preds = %1, %1
  store i64 4, ptr %2, align 8
  br label %11

10:                                               ; preds = %1
  store i64 0, ptr %2, align 8
  br label %11

11:                                               ; preds = %10, %9, %8, %7, %6
  %12 = load i64, ptr %2, align 8
  ret i64 %12
}