; Function Attrs: mustprogress nofree norecurse nosync nounwind willreturn memory(none) uwtable
define noundef range(i64 0, 5) i64 @_ZN11colvarvalue14num_dimensionsENS_4TypeE(i32 noundef %0) local_unnamed_addr #9 align 2 {
  %switch.tableidx = add i32 %0, -1
  %2 = icmp ult i32 %switch.tableidx, 6
  br i1 %2, label %switch.lookup, label %4

switch.lookup:                                    ; preds = %1
  %3 = zext nneg i32 %switch.tableidx to i64
  %switch.gep = getelementptr inbounds nuw [6 x i64], ptr @switch.table._ZN11colvarvalue8add_elemERKS_, i64 0, i64 %3
  %switch.load = load i64, ptr %switch.gep, align 8
  br label %4

4:                                                ; preds = %switch.lookup, %1
  %.0 = phi i64 [ 0, %1 ], [ %switch.load, %switch.lookup ]
  ret i64 %.0
}